target datalayout = "e-m:e-p270:32:32-p271:32:32-p272:64:64-i64:64-i128:128-f80:128-n8:16:32:64-S128"
target triple = "x86_64-pc-linux-gnu"

%"class.tbb::detail::d1::mutex" = type { %"class.tbb::detail::d1::waitable_atomic" }
%"class.tbb::detail::d1::waitable_atomic" = type { %"struct.std::atomic.61" }
%"struct.std::atomic.61" = type { %"struct.std::__atomic_base.62" }
%"struct.std::__atomic_base.62" = type { i8 }
%"class.tbb::detail::d1::unique_scoped_lock" = type { ptr }

@_ZN3tbb6detail2r117threading_control19g_threading_controlE = external global ptr, align 8
@_ZN3tbb6detail2r117threading_control25g_threading_control_mutexE = external global %"class.tbb::detail::d1::mutex", align 1

; Function Attrs: alwaysinline mustprogress nounwind sspstrong uwtable
define linkonce_odr noundef zeroext i1 @_ZNSt13__atomic_baseIbE8exchangeEbSt12memory_order(ptr noundef nonnull align 1 dereferenceable(1) %0, i1 noundef zeroext %1, i32 noundef %2) #4 comdat align 2 {
  %4 = alloca ptr, align 8
  %5 = alloca i8, align 1
  %6 = alloca i32, align 4
  %7 = alloca i8, align 1
  %8 = alloca i8, align 1
  store ptr %0, ptr %4, align 8, !tbaa !269
  %9 = zext i1 %1 to i8
  store i8 %9, ptr %5, align 1, !tbaa !30
  store i32 %2, ptr %6, align 4, !tbaa !136
  %10 = load ptr, ptr %4, align 8
  %11 = getelementptr inbounds nuw %"struct.std::__atomic_base.62", ptr %10, i32 0, i32 0
  %12 = load i32, ptr %6, align 4, !tbaa !136
  %13 = load i8, ptr %5, align 1, !tbaa !30, !range !32, !noundef !33
  %14 = trunc i8 %13 to i1
  %15 = zext i1 %14 to i8
  store i8 %15, ptr %7, align 1, !tbaa !30
  switch i32 %12, label %16 [
    i32 1, label %19
    i32 2, label %19
    i32 3, label %22
    i32 4, label %25
    i32 5, label %28
  ]

16:                                               ; preds = %3
  %17 = load i8, ptr %7, align 1
  %18 = atomicrmw xchg ptr %11, i8 %17 monotonic, align 1
  store i8 %18, ptr %8, align 1
  br label %31

19:                                               ; preds = %3, %3
  %20 = load i8, ptr %7, align 1
  %21 = atomicrmw xchg ptr %11, i8 %20 acquire, align 1
  store i8 %21, ptr %8, align 1
  br label %31

22:                                               ; preds = %3
  %23 = load i8, ptr %7, align 1
  %24 = atomicrmw xchg ptr %11, i8 %23 release, align 1
  store i8 %24, ptr %8, align 1
  br label %31

25:                                               ; preds = %3
  %26 = load i8, ptr %7, align 1
  %27 = atomicrmw xchg ptr %11, i8 %26 acq_rel, align 1
  store i8 %27, ptr %8, align 1
  br label %31

28:                                               ; preds = %3
  %29 = load i8, ptr %7, align 1
  %30 = atomicrmw xchg ptr %11, i8 %29 seq_cst, align 1
  store i8 %30, ptr %8, align 1
  br label %31

31:                                               ; preds = %28, %25, %22, %19, %16
  %32 = load i8, ptr %8, align 1, !tbaa !30, !range !32, !noundef !33
  %33 = trunc i8 %32 to i1
  ret i1 %33
}

; Function Attrs: mustprogress nounwind sspstrong uwtable
define linkonce_odr noundef zeroext i1 @_ZNSt6atomicIbE8exchangeEbSt12memory_order(ptr noundef nonnull align 1 dereferenceable(1) %0, i1 noundef zeroext %1, i32 noundef %2) #3 comdat align 2 {
  %4 = alloca ptr, align 8
  %5 = alloca i8, align 1
  %6 = alloca i32, align 4
  store ptr %0, ptr %4, align 8, !tbaa !249
  %7 = zext i1 %1 to i8
  store i8 %7, ptr %5, align 1, !tbaa !30
  store i32 %2, ptr %6, align 4, !tbaa !136
  %8 = load ptr, ptr %4, align 8
  %9 = getelementptr inbounds nuw %"struct.std::atomic.61", ptr %8, i32 0, i32 0
  %10 = load i8, ptr %5, align 1, !tbaa !30, !range !32, !noundef !33
  %11 = trunc i8 %10 to i1
  %12 = load i32, ptr %6, align 4, !tbaa !136
  %13 = call noundef zeroext i1 @_ZNSt13__atomic_baseIbE8exchangeEbSt12memory_order(ptr noundef nonnull align 1 dereferenceable(1) %9, i1 noundef zeroext %11, i32 noundef %12) #7
  ret i1 %13
}

; Function Attrs: mustprogress sspstrong uwtable
define linkonce_odr void @_ZN3tbb6detail2d115waitable_atomicIbE18notify_one_relaxedEv(ptr noundef nonnull align 1 dereferenceable(1) %0) #0 comdat align 2 {
  %2 = alloca ptr, align 8
  store ptr %0, ptr %2, align 8, !tbaa !353
  %3 = load ptr, ptr %2, align 8
  call void @_ZN3tbb6detail2r121notify_by_address_oneEPv(ptr noundef %3)
  ret void
}

; Function Attrs: mustprogress nounwind sspstrong uwtable
define linkonce_odr noundef zeroext i1 @_ZN3tbb6detail2d115waitable_atomicIbE8exchangeEb(ptr noundef nonnull align 1 dereferenceable(1) %0, i1 noundef zeroext %1) #3 comdat align 2 {
  %3 = alloca ptr, align 8
  %4 = alloca i8, align 1
  store ptr %0, ptr %3, align 8, !tbaa !353
  %5 = zext i1 %1 to i8
  store i8 %5, ptr %4, align 1, !tbaa !30
  %6 = load ptr, ptr %3, align 8
  %7 = getelementptr inbounds nuw %"class.tbb::detail::d1::waitable_atomic", ptr %6, i32 0, i32 0
  %8 = load i8, ptr %4, align 1, !tbaa !30, !range !32, !noundef !33
  %9 = trunc i8 %8 to i1
  %10 = call noundef zeroext i1 @_ZNSt6atomicIbE8exchangeEbSt12memory_order(ptr noundef nonnull align 1 dereferenceable(1) %7, i1 noundef zeroext %9, i32 noundef 5) #7
  ret i1 %10
}

; Function Attrs: inlinehint mustprogress nounwind sspstrong uwtable
define linkonce_odr void @_ZN3tbb6detail2d115call_itt_notifyENS1_11notify_typeEPv(i32 noundef %0, ptr noundef %1) #5 comdat {
  %3 = alloca i32, align 4
  %4 = alloca ptr, align 8
  store i32 %0, ptr %3, align 4, !tbaa !351
  store ptr %1, ptr %4, align 8, !tbaa !267
  ret void
}

; Function Attrs: mustprogress sspstrong uwtable
define linkonce_odr void @_ZN3tbb6detail2d15mutex6unlockEv(ptr noundef nonnull align 1 dereferenceable(1) %0) #0 comdat align 2 {
  %2 = alloca ptr, align 8
  store ptr %0, ptr %2, align 8, !tbaa !141
  %3 = load ptr, ptr %2, align 8
  call void @_ZN3tbb6detail2d115call_itt_notifyENS1_11notify_typeEPv(i32 noundef 3, ptr noundef %3)
  %4 = getelementptr inbounds nuw %"class.tbb::detail::d1::mutex", ptr %3, i32 0, i32 0
  %5 = call noundef zeroext i1 @_ZN3tbb6detail2d115waitable_atomicIbE8exchangeEb(ptr noundef nonnull align 1 dereferenceable(1) %4, i1 noundef zeroext false) #7
  %6 = getelementptr inbounds nuw %"class.tbb::detail::d1::mutex", ptr %3, i32 0, i32 0
  call void @_ZN3tbb6detail2d115waitable_atomicIbE18notify_one_relaxedEv(ptr noundef nonnull align 1 dereferenceable(1) %6)
  ret void
}

; Function Attrs: mustprogress sspstrong uwtable
define linkonce_odr void @_ZN3tbb6detail2d118unique_scoped_lockINS1_5mutexEE7releaseEv(ptr noundef nonnull align 8 dereferenceable(8) %0) #0 comdat align 2 {
  %2 = alloca ptr, align 8
  store ptr %0, ptr %2, align 8, !tbaa !131
  %3 = load ptr, ptr %2, align 8
  %4 = getelementptr inbounds nuw %"class.tbb::detail::d1::unique_scoped_lock", ptr %3, i32 0, i32 0
  %5 = load ptr, ptr %4, align 8, !tbaa !138
  call void @_ZN3tbb6detail2d15mutex6unlockEv(ptr noundef nonnull align 1 dereferenceable(1) %5)
  %6 = getelementptr inbounds nuw %"class.tbb::detail::d1::unique_scoped_lock", ptr %3, i32 0, i32 0
  store ptr null, ptr %6, align 8, !tbaa !138
  ret void
}

; Function Attrs: mustprogress nounwind sspstrong uwtable
define linkonce_odr void @_ZN3tbb6detail2d118unique_scoped_lockINS1_5mutexEED2Ev(ptr noundef nonnull align 8 dereferenceable(8) %0) unnamed_addr #3 comdat align 2 personality ptr @__gxx_personality_v0 {
  %2 = alloca ptr, align 8
  store ptr %0, ptr %2, align 8, !tbaa !131
  %3 = load ptr, ptr %2, align 8
  %4 = getelementptr inbounds nuw %"class.tbb::detail::d1::unique_scoped_lock", ptr %3, i32 0, i32 0
  %5 = load ptr, ptr %4, align 8, !tbaa !138
  %6 = icmp ne ptr %5, null
  br i1 %6, label %7, label %9

7:                                                ; preds = %1
  invoke void @_ZN3tbb6detail2d118unique_scoped_lockINS1_5mutexEE7releaseEv(ptr noundef nonnull align 8 dereferenceable(8) %3)
          to label %8 unwind label %10

8:                                                ; preds = %7
  br label %9

9:                                                ; preds = %8, %1
  ret void

10:                                               ; preds = %7
  %11 = landingpad { ptr, i32 }
          catch ptr null
  %12 = extractvalue { ptr, i32 } %11, 0
  call void @__clang_call_terminate(ptr %12) #14
  unreachable
}

; Function Attrs: mustprogress sspstrong uwtable
define linkonce_odr void @_ZN3tbb6detail2d118unique_scoped_lockINS1_5mutexEEC2ERS3_(ptr noundef nonnull align 8 dereferenceable(8) %0, ptr noundef nonnull align 1 dereferenceable(1) %1) unnamed_addr #0 comdat align 2 {
  %3 = alloca ptr, align 8
  %4 = alloca ptr, align 8
  store ptr %0, ptr %3, align 8, !tbaa !131
  store ptr %1, ptr %4, align 8, !tbaa !141
  %5 = load ptr, ptr %3, align 8
  %6 = getelementptr inbounds nuw %"class.tbb::detail::d1::unique_scoped_lock", ptr %5, i32 0, i32 0
  store ptr null, ptr %6, align 8, !tbaa !138
  %7 = load ptr, ptr %4, align 8, !tbaa !141
  call void @_ZN3tbb6detail2d118unique_scoped_lockINS1_5mutexEE7acquireERS3_(ptr noundef nonnull align 8 dereferenceable(8) %5, ptr noundef nonnull align 1 dereferenceable(1) %7)
  ret void
}

; Function Attrs: mustprogress sspstrong uwtable
define noundef zeroext i1 @_ZN3tbb6detail2r117threading_control27unregister_lifetime_controlEb(i1 noundef zeroext %0) #0 align 2 {
  %2 = alloca i8, align 1
  %3 = alloca ptr, align 8
  %4 = alloca %"class.tbb::detail::d1::unique_scoped_lock", align 8
  %5 = alloca i8, align 1
  %6 = zext i1 %0 to i8
  store i8 %6, ptr %2, align 1, !tbaa !30
  call void @llvm.lifetime.start.p0(i64 8, ptr %3) #7
  store ptr null, ptr %3, align 8, !tbaa !26
  call void @llvm.lifetime.start.p0(i64 8, ptr %4) #7
  call void @_ZN3tbb6detail2d118unique_scoped_lockINS1_5mutexEEC2ERS3_(ptr noundef nonnull align 8 dereferenceable(8) %4, ptr noundef nonnull align 1 dereferenceable(1) @_ZN3tbb6detail2r117threading_control25g_threading_control_mutexE)
  %7 = load ptr, ptr @_ZN3tbb6detail2r117threading_control19g_threading_controlE, align 8, !tbaa !26
  store ptr %7, ptr %3, align 8, !tbaa !26
  call void @_ZN3tbb6detail2d118unique_scoped_lockINS1_5mutexEED2Ev(ptr noundef nonnull align 8 dereferenceable(8) %4) #7
  call void @llvm.lifetime.end.p0(i64 8, ptr %4) #7
  call void @llvm.lifetime.start.p0(i64 1, ptr %5) #7
  store i8 1, ptr %5, align 1, !tbaa !30
  %8 = load ptr, ptr %3, align 8, !tbaa !26
  %9 = icmp ne ptr %8, null
  br i1 %9, label %10, label %16

10:                                               ; preds = %1
  %11 = load ptr, ptr %3, align 8, !tbaa !26
  %12 = load i8, ptr %2, align 1, !tbaa !30, !range !32, !noundef !33
  %13 = trunc i8 %12 to i1
  %14 = call noundef zeroext i1 @_ZN3tbb6detail2r117threading_control7releaseEbb(ptr noundef nonnull align 8 dereferenceable(16) %11, i1 noundef zeroext true, i1 noundef zeroext %13)
  %15 = zext i1 %14 to i8
  store i8 %15, ptr %5, align 1, !tbaa !30
  br label %16

16:                                               ; preds = %10, %1
  %17 = load i8, ptr %5, align 1, !tbaa !30, !range !32, !noundef !33
  %18 = trunc i8 %17 to i1
  call void @llvm.lifetime.end.p0(i64 1, ptr %5) #7
  call void @llvm.lifetime.end.p0(i64 8, ptr %3) #7
  ret i1 %18
}