; Function Attrs: mustprogress sspstrong uwtable
define noundef zeroext i1 @_ZN3tbb6detail2r117threading_control27unregister_lifetime_controlEb(i1 noundef zeroext %0) local_unnamed_addr #0 align 2 personality ptr @__gxx_personality_v0 {
  %2 = alloca %"class.tbb::detail::d1::unique_scoped_lock", align 8
  call void @llvm.lifetime.start.p0(i64 8, ptr nonnull %2) #16
  store ptr null, ptr %2, align 8, !tbaa !118
  call void @_ZN3tbb6detail2d118unique_scoped_lockINS1_5mutexEE7acquireERS3_(ptr noundef nonnull align 8 dereferenceable(8) %2, ptr noundef nonnull align 1 dereferenceable(1) @_ZN3tbb6detail2r117threading_control25g_threading_control_mutexE)
  %3 = load ptr, ptr @_ZN3tbb6detail2r117threading_control19g_threading_controlE, align 8, !tbaa !149
  %4 = load ptr, ptr %2, align 8, !tbaa !118
  %.not.i = icmp eq ptr %4, null
  br i1 %.not.i, label %_ZN3tbb6detail2d118unique_scoped_lockINS1_5mutexEED2Ev.exit, label %5

5:                                                ; preds = %1
  %6 = atomicrmw xchg ptr %4, i8 0 seq_cst, align 1
  invoke void @_ZN3tbb6detail2r121notify_by_address_oneEPv(ptr noundef nonnull align 1 dereferenceable(1) %4)
          to label %_ZN3tbb6detail2d118unique_scoped_lockINS1_5mutexEED2Ev.exit unwind label %7

7:                                                ; preds = %5
  %8 = landingpad { ptr, i32 }
          catch ptr null
  %9 = extractvalue { ptr, i32 } %8, 0
  call void @__clang_call_terminate(ptr %9) #22
  unreachable

_ZN3tbb6detail2d118unique_scoped_lockINS1_5mutexEED2Ev.exit: ; preds = %5, %1
  call void @llvm.lifetime.end.p0(i64 8, ptr nonnull %2) #16
  %.not = icmp eq ptr %3, null
  br i1 %.not, label %12, label %10

10:                                               ; preds = %_ZN3tbb6detail2d118unique_scoped_lockINS1_5mutexEED2Ev.exit
  %11 = call noundef zeroext i1 @_ZN3tbb6detail2r117threading_control7releaseEbb(ptr noundef nonnull align 8 dereferenceable(16) %3, i1 noundef zeroext true, i1 noundef zeroext %0)
  br label %12

12:                                               ; preds = %10, %_ZN3tbb6detail2d118unique_scoped_lockINS1_5mutexEED2Ev.exit
  %.0 = phi i1 [ %11, %10 ], [ true, %_ZN3tbb6detail2d118unique_scoped_lockINS1_5mutexEED2Ev.exit ]
  ret i1 %.0
}